; Function Attrs: nounwind uwtable
define internal range(i32 0, 2) i32 @ext_channel_id_parse_serverhello(ptr noundef readonly captures(none) %0, ptr readnone captures(none) %1, ptr noundef %2) #0 {
  %4 = icmp eq ptr %2, null
  br i1 %4, label %11, label %5

5:                                                ; preds = %3
  %6 = tail call i64 @CBS_len(ptr noundef nonnull %2) #21
  %.not = icmp eq i64 %6, 0
  br i1 %.not, label %7, label %11

7:                                                ; preds = %5
  %8 = getelementptr inbounds nuw i8, ptr %0, i64 80
  %9 = load ptr, ptr %8, align 8, !tbaa !58
  %10 = getelementptr inbounds nuw i8, ptr %9, i64 768
  store i8 1, ptr %10, align 8, !tbaa !177
  br label %11

11:                                               ; preds = %5, %3, %7
  %.0 = phi i32 [ 1, %7 ], [ 1, %3 ], [ 0, %5 ]
  ret i32 %.0
}